target datalayout = "e-m:e-p270:32:32-p271:32:32-p272:64:64-i64:64-i128:128-f80:128-n8:16:32:64-S128"
target triple = "x86_64-pc-linux-gnu"

@H5S_init_g = global i8 0, align 1
@H5_libterm_g = external global i8, align 1
@.str.3 = private unnamed_addr constant [97 x i8] c"generated/home/dtcxzyw/WorkSpace/Projects/compilers/llvm-opt-benchmark/bench/hdf5/hdf5/src/H5S.c\00", align 1
@H5E_CANTINIT_g = external global i64, align 8
@__func__.H5S__init_package = private unnamed_addr constant [18 x i8] c"H5S__init_package\00", align 1
@H5E_DATASPACE_g = external global i64, align 8
@.str.5 = private unnamed_addr constant [40 x i8] c"unable to initialize dataspace ID class\00", align 1
@.str.6 = private unnamed_addr constant [59 x i8] c"unable to initialize dataspace selection iterator ID class\00", align 1
@H5S_top_package_initialize_s = internal global i8 0, align 1
@H5I_DATASPACE_CLS = internal constant [1 x { i32, i32, i32, [4 x i8], ptr }] [{ i32, i32, i32, [4 x i8], ptr } { i32 4, i32 0, i32 3, [4 x i8] zeroinitializer, ptr @H5S__close_cb }], align 16
@H5I_SPACE_SEL_ITER_CLS = internal constant [1 x { i32, i32, i32, [4 x i8], ptr }] [{ i32, i32, i32, [4 x i8], ptr } { i32 15, i32 0, i32 0, [4 x i8] zeroinitializer, ptr @H5S__sel_iter_close_cb }], align 16

; Function Attrs: nounwind uwtable
define i32 @H5S__init_package() #0 {
  %1 = alloca i32, align 4
  %2 = alloca i8, align 1
  call void @llvm.lifetime.start.p0(i64 4, ptr %1) #7
  store i32 0, ptr %1, align 4, !tbaa !3
  call void @llvm.lifetime.start.p0(i64 1, ptr %2) #7
  store i8 0, ptr %2, align 1, !tbaa !7
  %3 = load i8, ptr @H5S_init_g, align 1, !tbaa !7, !range !9, !noundef !10
  %4 = trunc i8 %3 to i1
  br i1 %4, label %9, label %5

5:                                                ; preds = %0
  %6 = load i8, ptr @H5_libterm_g, align 1, !tbaa !7, !range !9, !noundef !10
  %7 = trunc i8 %6 to i1
  %8 = xor i1 %7, true
  br label %9

9:                                                ; preds = %5, %0
  %10 = phi i1 [ true, %0 ], [ %8, %5 ]
  %11 = xor i1 %10, true
  %12 = xor i1 %11, true
  %13 = zext i1 %12 to i32
  %14 = sext i32 %13 to i64
  %15 = call i64 @llvm.expect.i64(i64 %14, i64 1)
  %16 = icmp ne i64 %15, 0
  br i1 %16, label %17, label %63

17:                                               ; preds = %9
  %18 = call i32 @H5I_register_type(ptr noundef @H5I_DATASPACE_CLS)
  %19 = icmp slt i32 %18, 0
  br i1 %19, label %20, label %39

20:                                               ; preds = %17
  br label %21

21:                                               ; preds = %20
  br label %22

22:                                               ; preds = %21
  br label %23

23:                                               ; preds = %22
  %24 = load i64, ptr @H5E_DATASPACE_g, align 8, !tbaa !11
  %25 = load i64, ptr @H5E_CANTINIT_g, align 8, !tbaa !11
  %26 = call i32 (ptr, ptr, i32, i64, i64, ptr, ...) @H5E_printf_stack(ptr noundef @.str.3, ptr noundef @__func__.H5S__init_package, i32 noundef 143, i64 noundef %24, i64 noundef %25, ptr noundef @.str.5)
  br label %27

27:                                               ; preds = %23
  br label %28

28:                                               ; preds = %27
  store i8 1, ptr %2, align 1, !tbaa !7
  %29 = load i8, ptr %2, align 1, !tbaa !7, !range !9, !noundef !10
  %30 = trunc i8 %29 to i1
  %31 = zext i1 %30 to i8
  store i8 %31, ptr %2, align 1, !tbaa !7
  br label %32

32:                                               ; preds = %28
  br label %33

33:                                               ; preds = %32
  br label %34

34:                                               ; preds = %33
  store i32 -1, ptr %1, align 4, !tbaa !3
  br label %62

35:                                               ; No predecessors!
  br label %36

36:                                               ; preds = %35
  br label %37

37:                                               ; preds = %36
  br label %38

38:                                               ; preds = %37
  br label %39

39:                                               ; preds = %38, %17
  %40 = call i32 @H5I_register_type(ptr noundef @H5I_SPACE_SEL_ITER_CLS)
  %41 = icmp slt i32 %40, 0
  br i1 %41, label %42, label %61

42:                                               ; preds = %39
  br label %43

43:                                               ; preds = %42
  br label %44

44:                                               ; preds = %43
  br label %45

45:                                               ; preds = %44
  %46 = load i64, ptr @H5E_DATASPACE_g, align 8, !tbaa !11
  %47 = load i64, ptr @H5E_CANTINIT_g, align 8, !tbaa !11
  %48 = call i32 (ptr, ptr, i32, i64, i64, ptr, ...) @H5E_printf_stack(ptr noundef @.str.3, ptr noundef @__func__.H5S__init_package, i32 noundef 148, i64 noundef %46, i64 noundef %47, ptr noundef @.str.6)
  br label %49

49:                                               ; preds = %45
  br label %50

50:                                               ; preds = %49
  store i8 1, ptr %2, align 1, !tbaa !7
  %51 = load i8, ptr %2, align 1, !tbaa !7, !range !9, !noundef !10
  %52 = trunc i8 %51 to i1
  %53 = zext i1 %52 to i8
  store i8 %53, ptr %2, align 1, !tbaa !7
  br label %54

54:                                               ; preds = %50
  br label %55

55:                                               ; preds = %54
  br label %56

56:                                               ; preds = %55
  store i32 -1, ptr %1, align 4, !tbaa !3
  br label %62

57:                                               ; No predecessors!
  br label %58

58:                                               ; preds = %57
  br label %59

59:                                               ; preds = %58
  br label %60

60:                                               ; preds = %59
  br label %61

61:                                               ; preds = %60, %39
  store i8 1, ptr @H5S_top_package_initialize_s, align 1, !tbaa !7
  br label %62

62:                                               ; preds = %61, %56, %34
  br label %63

63:                                               ; preds = %62, %9
  %64 = load i32, ptr %1, align 4, !tbaa !3
  call void @llvm.lifetime.end.p0(i64 1, ptr %2) #7
  call void @llvm.lifetime.end.p0(i64 4, ptr %1) #7
  ret i32 %64
}