; Function Attrs: nounwind uwtable
define range(i32 -1, 1) i32 @H5S__init_package() local_unnamed_addr #0 {
  %1 = load i8, ptr @H5S_init_g, align 1, !tbaa !3, !range !7, !noundef !8
  %2 = trunc nuw i8 %1 to i1
  %3 = load i8, ptr @H5_libterm_g, align 1, !range !7
  %4 = trunc nuw i8 %3 to i1
  %5 = xor i1 %4, true
  %6 = select i1 %2, i1 true, i1 %5
  br i1 %6, label %7, label %22, !prof !9

7:                                                ; preds = %0
  %8 = tail call i32 @H5I_register_type(ptr noundef nonnull @H5I_DATASPACE_CLS) #10
  %9 = icmp slt i32 %8, 0
  br i1 %9, label %10, label %14

10:                                               ; preds = %7
  %11 = load i64, ptr @H5E_DATASPACE_g, align 8, !tbaa !10
  %12 = load i64, ptr @H5E_CANTINIT_g, align 8, !tbaa !10
  %13 = tail call i32 (ptr, ptr, i32, i64, i64, ptr, ...) @H5E_printf_stack(ptr noundef nonnull @.str.3, ptr noundef nonnull @__func__.H5S__init_package, i32 noundef 143, i64 noundef %11, i64 noundef %12, ptr noundef nonnull @.str.5) #10
  br label %22

14:                                               ; preds = %7
  %15 = tail call i32 @H5I_register_type(ptr noundef nonnull @H5I_SPACE_SEL_ITER_CLS) #10
  %16 = icmp slt i32 %15, 0
  br i1 %16, label %17, label %21

17:                                               ; preds = %14
  %18 = load i64, ptr @H5E_DATASPACE_g, align 8, !tbaa !10
  %19 = load i64, ptr @H5E_CANTINIT_g, align 8, !tbaa !10
  %20 = tail call i32 (ptr, ptr, i32, i64, i64, ptr, ...) @H5E_printf_stack(ptr noundef nonnull @.str.3, ptr noundef nonnull @__func__.H5S__init_package, i32 noundef 148, i64 noundef %18, i64 noundef %19, ptr noundef nonnull @.str.6) #10
  br label %22

21:                                               ; preds = %14
  store i1 true, ptr @H5S_top_package_initialize_s, align 1
  br label %22

22:                                               ; preds = %10, %17, %21, %0
  %.0 = phi i32 [ -1, %10 ], [ -1, %17 ], [ 0, %21 ], [ 0, %0 ]
  ret i32 %.0
}